; Function Attrs: mustprogress uwtable
define dso_local noundef nonnull ptr @_Z18createTempObstaclev() #0 personality ptr @__gxx_personality_v0 {
  %1 = tail call noalias noundef nonnull dereferenceable(280) ptr @_Znwm(i64 noundef 280) #20
  invoke void @_ZN20Sample_TempObstaclesC1Ev(ptr noundef nonnull align 8 dereferenceable(276) %1)
          to label %2 unwind label %3

2:                                                ; preds = %0
  ret ptr %1

3:                                                ; preds = %0
  %4 = landingpad { ptr, i32 }
          cleanup
  tail call void @_ZdlPv(ptr noundef nonnull %1) #21
  resume { ptr, i32 } %4
}